target datalayout = "e-m:e-p270:32:32-p271:32:32-p272:64:64-i64:64-i128:128-f80:128-n8:16:32:64-S128"
target triple = "x86_64-unknown-linux-gnu"

%"class.v8::IndirectHandleBase" = type { ptr }
%"class.node::cares_wrap::ChannelWrap" = type { %"class.node::AsyncWrap", ptr, ptr, i8, i8, i8, i32, i32, i32, %"class.std::unordered_set" }
%"class.node::AsyncWrap" = type { %"class.node::BaseObject", i32, i8, double, double }
%"class.node::BaseObject" = type { %"class.node::MemoryRetainer", %"class.v8::Global", ptr, ptr }
%"class.node::MemoryRetainer" = type { ptr }
%"class.v8::Global" = type { %"class.v8::PersistentBase" }
%"class.v8::PersistentBase" = type { %"class.v8::IndirectHandleBase" }
%"class.std::unordered_set" = type { %"class.std::_Hashtable" }
%"class.std::_Hashtable" = type { ptr, i64, %"struct.std::__detail::_Hash_node_base", i64, %"struct.std::__detail::_Prime_rehash_policy", ptr }
%"struct.std::__detail::_Hash_node_base" = type { ptr }
%"struct.std::__detail::_Prime_rehash_policy" = type { float, i64 }
%struct.uv__queue = type { ptr, ptr }
%"struct.node::cares_wrap::NodeAresTask" = type { %"class.node::MemoryRetainer", ptr, i32, %struct.uv_poll_s }
%struct.uv_poll_s = type { ptr, ptr, i32, ptr, %struct.uv__queue, %union.anon.25, ptr, i32, ptr, %struct.uv__io_s }
%union.anon.25 = type { [4 x ptr] }
%struct.uv__io_s = type { ptr, %struct.uv__queue, %struct.uv__queue, i32, i32, i32 }
%"class.node::ContainerOfHelper" = type { ptr }

; Function Attrs: mustprogress nounwind uwtable
define linkonce_odr dso_local noundef i64 @_ZN4node8OffsetOfI9uv_poll_sNS_10cares_wrap12NodeAresTaskEEEmMT0_T_(i64 %field) #4 comdat {
entry:
  %field.addr = alloca i64, align 8
  store i64 %field, ptr %field.addr, align 8
  %0 = load i64, ptr %field.addr, align 8
  %memptr.offset = getelementptr inbounds i8, ptr null, i64 %0
  %1 = ptrtoint ptr %memptr.offset to i64
  ret i64 %1
}

; Function Attrs: mustprogress nounwind uwtable
define linkonce_odr dso_local void @_ZN4node17ContainerOfHelperI9uv_poll_sNS_10cares_wrap12NodeAresTaskEEC2EMS3_S1_PS1_(ptr noundef nonnull align 8 dereferenceable(8) %this, i64 %field, ptr noundef %pointer) unnamed_addr #4 comdat align 2 {
entry:
  %this.addr = alloca ptr, align 8
  %field.addr = alloca i64, align 8
  %pointer.addr = alloca ptr, align 8
  store ptr %this, ptr %this.addr, align 8
  store i64 %field, ptr %field.addr, align 8
  store ptr %pointer, ptr %pointer.addr, align 8
  %this1 = load ptr, ptr %this.addr, align 8
  %pointer_ = getelementptr inbounds %"class.node::ContainerOfHelper", ptr %this1, i32 0, i32 0
  %0 = load ptr, ptr %pointer.addr, align 8
  %1 = ptrtoint ptr %0 to i64
  %2 = load i64, ptr %field.addr, align 8
  %call = call noundef i64 @_ZN4node8OffsetOfI9uv_poll_sNS_10cares_wrap12NodeAresTaskEEEmMT0_T_(i64 %2)
  %sub = sub i64 %1, %call
  %3 = inttoptr i64 %sub to ptr
  store ptr %3, ptr %pointer_, align 8
  ret void
}

; Function Attrs: mustprogress nounwind uwtable
define linkonce_odr dso_local noundef ptr @_ZN4node10cares_wrap11ChannelWrap13cares_channelEv(ptr noundef nonnull align 8 dereferenceable(144) %this) #4 comdat align 2 {
entry:
  %this.addr = alloca ptr, align 8
  store ptr %this, ptr %this.addr, align 8
  %this1 = load ptr, ptr %this.addr, align 8
  %channel_ = getelementptr inbounds %"class.node::cares_wrap::ChannelWrap", ptr %this1, i32 0, i32 2
  %0 = load ptr, ptr %channel_, align 8
  ret ptr %0
}

; Function Attrs: mustprogress nounwind uwtable
define linkonce_odr dso_local noundef ptr @_ZN4node10cares_wrap11ChannelWrap12timer_handleEv(ptr noundef nonnull align 8 dereferenceable(144) %this) #4 comdat align 2 {
entry:
  %this.addr = alloca ptr, align 8
  store ptr %this, ptr %this.addr, align 8
  %this1 = load ptr, ptr %this.addr, align 8
  %timer_handle_ = getelementptr inbounds %"class.node::cares_wrap::ChannelWrap", ptr %this1, i32 0, i32 1
  %0 = load ptr, ptr %timer_handle_, align 8
  ret ptr %0
}

; Function Attrs: mustprogress nounwind uwtable
define linkonce_odr dso_local noundef ptr @_ZNK4node17ContainerOfHelperI9uv_poll_sNS_10cares_wrap12NodeAresTaskEEcvPT_IS3_EEv(ptr noundef nonnull align 8 dereferenceable(8) %this) #4 comdat align 2 {
entry:
  %this.addr = alloca ptr, align 8
  store ptr %this, ptr %this.addr, align 8
  %this1 = load ptr, ptr %this.addr, align 8
  %pointer_ = getelementptr inbounds %"class.node::ContainerOfHelper", ptr %this1, i32 0, i32 0
  %0 = load ptr, ptr %pointer_, align 8
  ret ptr %0
}

; Function Attrs: mustprogress nounwind uwtable
define linkonce_odr dso_local ptr @_ZN4node11ContainerOfI9uv_poll_sNS_10cares_wrap12NodeAresTaskEEENS_17ContainerOfHelperIT_T0_EEMS6_S5_PS5_(i64 %field, ptr noundef %pointer) #4 comdat {
entry:
  %retval = alloca %"class.node::ContainerOfHelper", align 8
  %field.addr = alloca i64, align 8
  %pointer.addr = alloca ptr, align 8
  store i64 %field, ptr %field.addr, align 8
  store ptr %pointer, ptr %pointer.addr, align 8
  %0 = load i64, ptr %field.addr, align 8
  %1 = load ptr, ptr %pointer.addr, align 8
  call void @_ZN4node17ContainerOfHelperI9uv_poll_sNS_10cares_wrap12NodeAresTaskEEC2EMS3_S1_PS1_(ptr noundef nonnull align 8 dereferenceable(8) %retval, i64 %0, ptr noundef %1)
  %coerce.dive = getelementptr inbounds %"class.node::ContainerOfHelper", ptr %retval, i32 0, i32 0
  %2 = load ptr, ptr %coerce.dive, align 8
  ret ptr %2
}

; Function Attrs: mustprogress nounwind uwtable
define internal void @_ZN4node10cares_wrap12_GLOBAL__N_112ares_poll_cbEP9uv_poll_sii(ptr noundef %watcher, i32 noundef %status, i32 noundef %events) #4 {
entry:
  %watcher.addr = alloca ptr, align 8
  %status.addr = alloca i32, align 4
  %events.addr = alloca i32, align 4
  %task = alloca ptr, align 8
  %ref.tmp = alloca %"class.node::ContainerOfHelper", align 8
  %channel = alloca ptr, align 8
  store ptr %watcher, ptr %watcher.addr, align 8
  store i32 %status, ptr %status.addr, align 4
  store i32 %events, ptr %events.addr, align 4
  %0 = load ptr, ptr %watcher.addr, align 8
  %call = call ptr @_ZN4node11ContainerOfI9uv_poll_sNS_10cares_wrap12NodeAresTaskEEENS_17ContainerOfHelperIT_T0_EEMS6_S5_PS5_(i64 24, ptr noundef %0)
  %coerce.dive = getelementptr inbounds %"class.node::ContainerOfHelper", ptr %ref.tmp, i32 0, i32 0
  store ptr %call, ptr %coerce.dive, align 8
  %call1 = call noundef ptr @_ZNK4node17ContainerOfHelperI9uv_poll_sNS_10cares_wrap12NodeAresTaskEEcvPT_IS3_EEv(ptr noundef nonnull align 8 dereferenceable(8) %ref.tmp)
  store ptr %call1, ptr %task, align 8
  %1 = load ptr, ptr %task, align 8
  %channel2 = getelementptr inbounds %"struct.node::cares_wrap::NodeAresTask", ptr %1, i32 0, i32 1
  %2 = load ptr, ptr %channel2, align 8
  store ptr %2, ptr %channel, align 8
  %3 = load ptr, ptr %channel, align 8
  %call3 = call noundef ptr @_ZN4node10cares_wrap11ChannelWrap12timer_handleEv(ptr noundef nonnull align 8 dereferenceable(144) %3)
  %call4 = call i32 @uv_timer_again(ptr noundef %call3)
  %4 = load i32, ptr %status.addr, align 4
  %cmp = icmp slt i32 %4, 0
  br i1 %cmp, label %if.then, label %if.end

if.then:                                          ; preds = %entry
  %5 = load ptr, ptr %channel, align 8
  %call5 = call noundef ptr @_ZN4node10cares_wrap11ChannelWrap13cares_channelEv(ptr noundef nonnull align 8 dereferenceable(144) %5)
  %6 = load ptr, ptr %task, align 8
  %sock = getelementptr inbounds %"struct.node::cares_wrap::NodeAresTask", ptr %6, i32 0, i32 2
  %7 = load i32, ptr %sock, align 8
  %8 = load ptr, ptr %task, align 8
  %sock6 = getelementptr inbounds %"struct.node::cares_wrap::NodeAresTask", ptr %8, i32 0, i32 2
  %9 = load i32, ptr %sock6, align 8
  call void @ares_process_fd(ptr noundef %call5, i32 noundef %7, i32 noundef %9)
  br label %return

if.end:                                           ; preds = %entry
  %10 = load ptr, ptr %channel, align 8
  %call7 = call noundef ptr @_ZN4node10cares_wrap11ChannelWrap13cares_channelEv(ptr noundef nonnull align 8 dereferenceable(144) %10)
  %11 = load i32, ptr %events.addr, align 4
  %and = and i32 %11, 1
  %tobool = icmp ne i32 %and, 0
  br i1 %tobool, label %cond.true, label %cond.false

cond.true:                                        ; preds = %if.end
  %12 = load ptr, ptr %task, align 8
  %sock8 = getelementptr inbounds %"struct.node::cares_wrap::NodeAresTask", ptr %12, i32 0, i32 2
  %13 = load i32, ptr %sock8, align 8
  br label %cond.end

cond.false:                                       ; preds = %if.end
  br label %cond.end

cond.end:                                         ; preds = %cond.false, %cond.true
  %cond = phi i32 [ %13, %cond.true ], [ -1, %cond.false ]
  %14 = load i32, ptr %events.addr, align 4
  %and9 = and i32 %14, 2
  %tobool10 = icmp ne i32 %and9, 0
  br i1 %tobool10, label %cond.true11, label %cond.false13

cond.true11:                                      ; preds = %cond.end
  %15 = load ptr, ptr %task, align 8
  %sock12 = getelementptr inbounds %"struct.node::cares_wrap::NodeAresTask", ptr %15, i32 0, i32 2
  %16 = load i32, ptr %sock12, align 8
  br label %cond.end14

cond.false13:                                     ; preds = %cond.end
  br label %cond.end14

cond.end14:                                       ; preds = %cond.false13, %cond.true11
  %cond15 = phi i32 [ %16, %cond.true11 ], [ -1, %cond.false13 ]
  call void @ares_process_fd(ptr noundef %call7, i32 noundef %cond, i32 noundef %cond15)
  br label %return

return:                                           ; preds = %cond.end14, %if.then
  ret void
}