; Function Attrs: mustprogress nounwind uwtable
define internal void @_ZN4node10cares_wrap12_GLOBAL__N_112ares_poll_cbEP9uv_poll_sii(ptr noundef %watcher, i32 noundef %status, i32 noundef %events) #3 {
entry:
  %0 = ptrtoint ptr %watcher to i64
  %sub.i.i = add i64 %0, -24
  %1 = inttoptr i64 %sub.i.i to ptr
  %channel2 = getelementptr inbounds i8, ptr %1, i64 8
  %2 = load ptr, ptr %channel2, align 8
  %timer_handle_.i = getelementptr inbounds i8, ptr %2, i64 56
  %3 = load ptr, ptr %timer_handle_.i, align 8
  %call4 = tail call i32 @uv_timer_again(ptr noundef %3) #20
  %cmp = icmp slt i32 %status, 0
  %channel_.i = getelementptr inbounds i8, ptr %2, i64 64
  %4 = load ptr, ptr %channel_.i, align 8
  br i1 %cmp, label %if.then, label %if.end

if.then:                                          ; preds = %entry
  %sock = getelementptr inbounds i8, ptr %1, i64 16
  %5 = load i32, ptr %sock, align 8
  tail call void @ares_process_fd(ptr noundef %4, i32 noundef %5, i32 noundef %5) #20
  br label %return

if.end:                                           ; preds = %entry
  %and = and i32 %events, 1
  %tobool.not = icmp eq i32 %and, 0
  br i1 %tobool.not, label %cond.end, label %cond.true

cond.true:                                        ; preds = %if.end
  %sock8 = getelementptr inbounds i8, ptr %1, i64 16
  %6 = load i32, ptr %sock8, align 8
  br label %cond.end

cond.end:                                         ; preds = %if.end, %cond.true
  %cond = phi i32 [ %6, %cond.true ], [ -1, %if.end ]
  %and9 = and i32 %events, 2
  %tobool10.not = icmp eq i32 %and9, 0
  br i1 %tobool10.not, label %cond.end14, label %cond.true11

cond.true11:                                      ; preds = %cond.end
  %sock12 = getelementptr inbounds i8, ptr %1, i64 16
  %7 = load i32, ptr %sock12, align 8
  br label %cond.end14

cond.end14:                                       ; preds = %cond.end, %cond.true11
  %cond15 = phi i32 [ %7, %cond.true11 ], [ -1, %cond.end ]
  tail call void @ares_process_fd(ptr noundef %4, i32 noundef %cond, i32 noundef %cond15) #20
  br label %return

return:                                           ; preds = %cond.end14, %if.then
  ret void
}